target datalayout = "e-m:e-p270:32:32-p271:32:32-p272:64:64-i64:64-i128:128-f80:128-n8:16:32:64-S128"
target triple = "x86_64-pc-linux-gnu"

%struct.If_DsdMan_t_ = type { ptr, i32, i32, i32, i32, ptr, ptr, %struct.Vec_Ptr_t_, %struct.Vec_Int_t_, %struct.Vec_Int_t_, ptr, ptr, ptr, [16 x ptr], [16 x ptr], [16 x ptr], [16 x ptr], i32, i32, ptr, ptr, ptr, ptr, ptr, i32, i32, i32, i32, i64, i64, i64, i64, i64 }
%struct.Vec_Ptr_t_ = type { i32, i32, ptr }
%struct.Vec_Int_t_ = type { i32, i32, ptr }
%struct.If_DsdObj_t_ = type { i32, i32, [0 x i32] }

; Function Attrs: inlinehint nounwind uwtable
define internal ptr @Vec_PtrEntry(ptr noundef %0, i32 noundef %1) #1 {
  %3 = alloca ptr, align 8
  %4 = alloca i32, align 4
  store ptr %0, ptr %3, align 8, !tbaa !22
  store i32 %1, ptr %4, align 4, !tbaa !27
  %5 = load ptr, ptr %3, align 8, !tbaa !22
  %6 = getelementptr inbounds nuw %struct.Vec_Ptr_t_, ptr %5, i32 0, i32 2
  %7 = load ptr, ptr %6, align 8, !tbaa !46
  %8 = load i32, ptr %4, align 4, !tbaa !27
  %9 = sext i32 %8 to i64
  %10 = getelementptr inbounds ptr, ptr %7, i64 %9
  %11 = load ptr, ptr %10, align 8, !tbaa !44
  ret ptr %11
}

; Function Attrs: inlinehint nounwind uwtable
define internal i32 @Abc_Lit2Var(i32 noundef %0) #1 {
  %2 = alloca i32, align 4
  store i32 %0, ptr %2, align 4, !tbaa !27
  %3 = load i32, ptr %2, align 4, !tbaa !27
  %4 = ashr i32 %3, 1
  ret i32 %4
}

; Function Attrs: inlinehint nounwind uwtable
define internal i32 @If_DsdObjFaninLit(ptr noundef %0, i32 noundef %1) #1 {
  %3 = alloca ptr, align 8
  %4 = alloca i32, align 4
  store ptr %0, ptr %3, align 8, !tbaa !40
  store i32 %1, ptr %4, align 4, !tbaa !27
  %5 = load ptr, ptr %3, align 8, !tbaa !40
  %6 = getelementptr inbounds nuw %struct.If_DsdObj_t_, ptr %5, i32 0, i32 2
  %7 = load i32, ptr %4, align 4, !tbaa !27
  %8 = sext i32 %7 to i64
  %9 = getelementptr inbounds [0 x i32], ptr %6, i64 0, i64 %8
  %10 = load i32, ptr %9, align 4, !tbaa !27
  ret i32 %10
}

; Function Attrs: inlinehint nounwind uwtable
define internal i32 @If_DsdObjFaninNum(ptr noundef %0) #1 {
  %2 = alloca ptr, align 8
  store ptr %0, ptr %2, align 8, !tbaa !40
  %3 = load ptr, ptr %2, align 8, !tbaa !40
  %4 = getelementptr inbounds nuw %struct.If_DsdObj_t_, ptr %3, i32 0, i32 1
  %5 = load i32, ptr %4, align 4
  %6 = lshr i32 %5, 27
  ret i32 %6
}

; Function Attrs: inlinehint nounwind uwtable
define internal i32 @If_DsdObjType(ptr noundef %0) #1 {
  %2 = alloca ptr, align 8
  store ptr %0, ptr %2, align 8, !tbaa !40
  %3 = load ptr, ptr %2, align 8, !tbaa !40
  %4 = getelementptr inbounds nuw %struct.If_DsdObj_t_, ptr %3, i32 0, i32 1
  %5 = load i32, ptr %4, align 4
  %6 = and i32 %5, 7
  ret i32 %6
}

; Function Attrs: inlinehint nounwind uwtable
define internal ptr @If_DsdVecObj(ptr noundef %0, i32 noundef %1) #1 {
  %3 = alloca ptr, align 8
  %4 = alloca i32, align 4
  store ptr %0, ptr %3, align 8, !tbaa !22
  store i32 %1, ptr %4, align 4, !tbaa !27
  %5 = load ptr, ptr %3, align 8, !tbaa !22
  %6 = load i32, ptr %4, align 4, !tbaa !27
  %7 = call ptr @Vec_PtrEntry(ptr noundef %5, i32 noundef %6)
  ret ptr %7
}

; Function Attrs: nounwind uwtable
define i32 @If_DsdManCheckNonTriv(ptr noundef %0, i32 noundef %1, i32 noundef %2, i32 noundef %3) #0 {
  %5 = alloca i32, align 4
  %6 = alloca ptr, align 8
  %7 = alloca i32, align 4
  %8 = alloca i32, align 4
  %9 = alloca i32, align 4
  %10 = alloca ptr, align 8
  %11 = alloca i32, align 4
  %12 = alloca i32, align 4
  %13 = alloca i32, align 4
  store ptr %0, ptr %6, align 8, !tbaa !3
  store i32 %1, ptr %7, align 4, !tbaa !27
  store i32 %2, ptr %8, align 4, !tbaa !27
  store i32 %3, ptr %9, align 4, !tbaa !27
  call void @llvm.lifetime.start.p0(i64 8, ptr %10) #15
  call void @llvm.lifetime.start.p0(i64 4, ptr %11) #15
  call void @llvm.lifetime.start.p0(i64 4, ptr %12) #15
  %14 = load ptr, ptr %6, align 8, !tbaa !3
  %15 = getelementptr inbounds nuw %struct.If_DsdMan_t_, ptr %14, i32 0, i32 7
  %16 = load i32, ptr %7, align 4, !tbaa !27
  %17 = call ptr @If_DsdVecObj(ptr noundef %15, i32 noundef %16)
  store ptr %17, ptr %10, align 8, !tbaa !40
  %18 = load ptr, ptr %10, align 8, !tbaa !40
  %19 = call i32 @If_DsdObjType(ptr noundef %18)
  %20 = icmp eq i32 %19, 6
  br i1 %20, label %21, label %22

21:                                               ; preds = %4
  store i32 1, ptr %5, align 4
  store i32 1, ptr %13, align 4
  br label %55

22:                                               ; preds = %4
  %23 = load ptr, ptr %10, align 8, !tbaa !40
  %24 = call i32 @If_DsdObjFaninNum(ptr noundef %23)
  %25 = load i32, ptr %8, align 4, !tbaa !27
  %26 = icmp eq i32 %24, %25
  br i1 %26, label %27, label %28

27:                                               ; preds = %22
  store i32 0, ptr %5, align 4
  store i32 1, ptr %13, align 4
  br label %55

28:                                               ; preds = %22
  store i32 0, ptr %11, align 4, !tbaa !27
  br label %29

29:                                               ; preds = %51, %28
  %30 = load i32, ptr %11, align 4, !tbaa !27
  %31 = load ptr, ptr %10, align 8, !tbaa !40
  %32 = call i32 @If_DsdObjFaninNum(ptr noundef %31)
  %33 = icmp slt i32 %30, %32
  br i1 %33, label %34, label %39

34:                                               ; preds = %29
  %35 = load ptr, ptr %10, align 8, !tbaa !40
  %36 = load i32, ptr %11, align 4, !tbaa !27
  %37 = call i32 @If_DsdObjFaninLit(ptr noundef %35, i32 noundef %36)
  store i32 %37, ptr %12, align 4, !tbaa !27
  %38 = icmp ne i32 %37, 0
  br label %39

39:                                               ; preds = %34, %29
  %40 = phi i1 [ false, %29 ], [ %38, %34 ]
  br i1 %40, label %41, label %54

41:                                               ; preds = %39
  %42 = load i32, ptr %12, align 4, !tbaa !27
  %43 = call i32 @Abc_Lit2Var(i32 noundef %42)
  %44 = icmp eq i32 %43, 1
  br i1 %44, label %45, label %50

45:                                               ; preds = %41
  %46 = load i32, ptr %11, align 4, !tbaa !27
  %47 = load i32, ptr %9, align 4, !tbaa !27
  %48 = icmp eq i32 %46, %47
  br i1 %48, label %49, label %50

49:                                               ; preds = %45
  store i32 0, ptr %5, align 4
  store i32 1, ptr %13, align 4
  br label %55

50:                                               ; preds = %45, %41
  br label %51

51:                                               ; preds = %50
  %52 = load i32, ptr %11, align 4, !tbaa !27
  %53 = add nsw i32 %52, 1
  store i32 %53, ptr %11, align 4, !tbaa !27
  br label %29, !llvm.loop !159

54:                                               ; preds = %39
  store i32 1, ptr %5, align 4
  store i32 1, ptr %13, align 4
  br label %55

55:                                               ; preds = %54, %49, %27, %21
  call void @llvm.lifetime.end.p0(i64 4, ptr %12) #15
  call void @llvm.lifetime.end.p0(i64 4, ptr %11) #15
  call void @llvm.lifetime.end.p0(i64 8, ptr %10) #15
  %56 = load i32, ptr %5, align 4
  ret i32 %56
}