; Function Attrs: nofree norecurse nosync nounwind memory(read, inaccessiblemem: none) uwtable
define range(i32 0, 2) i32 @If_DsdManCheckNonTriv(ptr noundef readonly captures(none) %0, i32 noundef %1, i32 noundef %2, i32 noundef %3) local_unnamed_addr #10 {
  %5 = getelementptr i8, ptr %0, i64 48
  %.val = load ptr, ptr %5, align 8, !tbaa !23
  %6 = sext i32 %1 to i64
  %7 = getelementptr inbounds ptr, ptr %.val, i64 %6
  %8 = load ptr, ptr %7, align 8, !tbaa !24
  %9 = getelementptr i8, ptr %8, i64 4
  %.val15 = load i32, ptr %9, align 4
  %10 = and i32 %.val15, 7
  %11 = icmp eq i32 %10, 6
  br i1 %11, label %.critedge, label %12

12:                                               ; preds = %4
  %13 = lshr i32 %.val15, 27
  %14 = icmp eq i32 %13, %2
  br i1 %14, label %.critedge, label %.preheader

.preheader:                                       ; preds = %12
  %15 = getelementptr inbounds nuw i8, ptr %8, i64 8
  %.not23 = icmp ult i32 %.val15, 134217728
  br i1 %.not23, label %.critedge, label %.lr.ph.preheader

.lr.ph.preheader:                                 ; preds = %.preheader
  %16 = zext i32 %3 to i64
  %wide.trip.count = zext nneg i32 %13 to i64
  br label %.lr.ph

17:                                               ; preds = %20
  %indvars.iv.next = add nuw nsw i64 %indvars.iv, 1
  %exitcond.not = icmp eq i64 %indvars.iv.next, %wide.trip.count
  br i1 %exitcond.not, label %.critedge, label %.lr.ph, !llvm.loop !156

.lr.ph:                                           ; preds = %.lr.ph.preheader, %17
  %indvars.iv = phi i64 [ 0, %.lr.ph.preheader ], [ %indvars.iv.next, %17 ]
  %18 = getelementptr inbounds nuw [0 x i32], ptr %15, i64 0, i64 %indvars.iv
  %19 = load i32, ptr %18, align 4, !tbaa !40
  %.not = icmp eq i32 %19, 0
  br i1 %.not, label %.critedge, label %20

20:                                               ; preds = %.lr.ph
  %.mask = and i32 %19, -2
  %21 = icmp eq i32 %.mask, 2
  %22 = icmp eq i64 %indvars.iv, %16
  %or.cond = and i1 %22, %21
  br i1 %or.cond, label %.critedge, label %17

.critedge:                                        ; preds = %20, %17, %.lr.ph, %.preheader, %12, %4
  %.0 = phi i32 [ 1, %4 ], [ 0, %12 ], [ 1, %.preheader ], [ 0, %20 ], [ 1, %17 ], [ 1, %.lr.ph ]
  ret i32 %.0
}